
KEYPAD_Driver.elf:     file format elf32-avr

Sections:
Idx Name          Size      VMA       LMA       File off  Algn
  0 .text         00000706  00000000  00000000  00000094  2**1
                  CONTENTS, ALLOC, LOAD, READONLY, CODE
  1 .data         00000020  00800060  00000706  0000079a  2**0
                  CONTENTS, ALLOC, LOAD, DATA
  2 .bss          00000001  00800080  00800080  000007ba  2**0
                  ALLOC
  3 .comment      00000030  00000000  00000000  000007ba  2**0
                  CONTENTS, READONLY
  4 .note.gnu.avr.deviceinfo 0000003c  00000000  00000000  000007ec  2**2
                  CONTENTS, READONLY
  5 .debug_aranges 00000108  00000000  00000000  00000828  2**0
                  CONTENTS, READONLY, DEBUGGING
  6 .debug_info   000018b0  00000000  00000000  00000930  2**0
                  CONTENTS, READONLY, DEBUGGING
  7 .debug_abbrev 0000090a  00000000  00000000  000021e0  2**0
                  CONTENTS, READONLY, DEBUGGING
  8 .debug_line   00000b86  00000000  00000000  00002aea  2**0
                  CONTENTS, READONLY, DEBUGGING
  9 .debug_frame  0000020c  00000000  00000000  00003670  2**2
                  CONTENTS, READONLY, DEBUGGING
 10 .debug_str    000006b4  00000000  00000000  0000387c  2**0
                  CONTENTS, READONLY, DEBUGGING
 11 .debug_loc    00000e44  00000000  00000000  00003f30  2**0
                  CONTENTS, READONLY, DEBUGGING
 12 .debug_ranges 000000c8  00000000  00000000  00004d74  2**0
                  CONTENTS, READONLY, DEBUGGING

Disassembly of section .text:

00000000 <__vectors>:
   0:	0c 94 2a 00 	jmp	0x54	; 0x54 <__ctors_end>
   4:	0c 94 47 00 	jmp	0x8e	; 0x8e <__bad_interrupt>
   8:	0c 94 47 00 	jmp	0x8e	; 0x8e <__bad_interrupt>
   c:	0c 94 47 00 	jmp	0x8e	; 0x8e <__bad_interrupt>
  10:	0c 94 47 00 	jmp	0x8e	; 0x8e <__bad_interrupt>
  14:	0c 94 47 00 	jmp	0x8e	; 0x8e <__bad_interrupt>
  18:	0c 94 47 00 	jmp	0x8e	; 0x8e <__bad_interrupt>
  1c:	0c 94 47 00 	jmp	0x8e	; 0x8e <__bad_interrupt>
  20:	0c 94 47 00 	jmp	0x8e	; 0x8e <__bad_interrupt>
  24:	0c 94 47 00 	jmp	0x8e	; 0x8e <__bad_interrupt>
  28:	0c 94 47 00 	jmp	0x8e	; 0x8e <__bad_interrupt>
  2c:	0c 94 47 00 	jmp	0x8e	; 0x8e <__bad_interrupt>
  30:	0c 94 47 00 	jmp	0x8e	; 0x8e <__bad_interrupt>
  34:	0c 94 47 00 	jmp	0x8e	; 0x8e <__bad_interrupt>
  38:	0c 94 47 00 	jmp	0x8e	; 0x8e <__bad_interrupt>
  3c:	0c 94 47 00 	jmp	0x8e	; 0x8e <__bad_interrupt>
  40:	0c 94 47 00 	jmp	0x8e	; 0x8e <__bad_interrupt>
  44:	0c 94 47 00 	jmp	0x8e	; 0x8e <__bad_interrupt>
  48:	0c 94 47 00 	jmp	0x8e	; 0x8e <__bad_interrupt>
  4c:	0c 94 47 00 	jmp	0x8e	; 0x8e <__bad_interrupt>
  50:	0c 94 47 00 	jmp	0x8e	; 0x8e <__bad_interrupt>

00000054 <__ctors_end>:
  54:	11 24       	eor	r1, r1
  56:	1f be       	out	0x3f, r1	; 63
  58:	cf e5       	ldi	r28, 0x5F	; 95
  5a:	d8 e0       	ldi	r29, 0x08	; 8
  5c:	de bf       	out	0x3e, r29	; 62
  5e:	cd bf       	out	0x3d, r28	; 61

00000060 <__do_copy_data>:
  60:	10 e0       	ldi	r17, 0x00	; 0
  62:	a0 e6       	ldi	r26, 0x60	; 96
  64:	b0 e0       	ldi	r27, 0x00	; 0
  66:	e6 e0       	ldi	r30, 0x06	; 6
  68:	f7 e0       	ldi	r31, 0x07	; 7
  6a:	02 c0       	rjmp	.+4      	; 0x70 <__do_copy_data+0x10>
  6c:	05 90       	lpm	r0, Z+
  6e:	0d 92       	st	X+, r0
  70:	a0 38       	cpi	r26, 0x80	; 128
  72:	b1 07       	cpc	r27, r17
  74:	d9 f7       	brne	.-10     	; 0x6c <__do_copy_data+0xc>

00000076 <__do_clear_bss>:
  76:	20 e0       	ldi	r18, 0x00	; 0
  78:	a0 e8       	ldi	r26, 0x80	; 128
  7a:	b0 e0       	ldi	r27, 0x00	; 0
  7c:	01 c0       	rjmp	.+2      	; 0x80 <.do_clear_bss_start>

0000007e <.do_clear_bss_loop>:
  7e:	1d 92       	st	X+, r1

00000080 <.do_clear_bss_start>:
  80:	a1 38       	cpi	r26, 0x81	; 129
  82:	b2 07       	cpc	r27, r18
  84:	e1 f7       	brne	.-8      	; 0x7e <.do_clear_bss_loop>
  86:	0e 94 70 03 	call	0x6e0	; 0x6e0 <main>
  8a:	0c 94 81 03 	jmp	0x702	; 0x702 <_exit>

0000008e <__bad_interrupt>:
  8e:	0c 94 00 00 	jmp	0	; 0x0 <__vectors>

00000092 <DIO_enuSetPinDirection>:
**/
ES_t DIO_enuSetPinDirection(u8 Copy_u8PortID, u8 Copy_u8PinID, u8 Copy_u8Value)
{
	ES_t Local_enuErrorState = ES_NOK;
	
	if(Copy_u8PortID <= DIO_PORTD && Copy_u8PinID <= DIO_PIN7 && Copy_u8Value <= OUTPUT)
  92:	84 30       	cpi	r24, 0x04	; 4
  94:	08 f0       	brcs	.+2      	; 0x98 <DIO_enuSetPinDirection+0x6>
  96:	67 c0       	rjmp	.+206    	; 0x166 <DIO_enuSetPinDirection+0xd4>
  98:	68 30       	cpi	r22, 0x08	; 8
  9a:	08 f0       	brcs	.+2      	; 0x9e <DIO_enuSetPinDirection+0xc>
  9c:	66 c0       	rjmp	.+204    	; 0x16a <DIO_enuSetPinDirection+0xd8>
  9e:	42 30       	cpi	r20, 0x02	; 2
  a0:	08 f0       	brcs	.+2      	; 0xa4 <DIO_enuSetPinDirection+0x12>
  a2:	65 c0       	rjmp	.+202    	; 0x16e <DIO_enuSetPinDirection+0xdc>
	{
		switch(Copy_u8PortID)
  a4:	81 30       	cpi	r24, 0x01	; 1
  a6:	e9 f0       	breq	.+58     	; 0xe2 <DIO_enuSetPinDirection+0x50>
  a8:	30 f0       	brcs	.+12     	; 0xb6 <DIO_enuSetPinDirection+0x24>
  aa:	82 30       	cpi	r24, 0x02	; 2
  ac:	81 f1       	breq	.+96     	; 0x10e <DIO_enuSetPinDirection+0x7c>
  ae:	83 30       	cpi	r24, 0x03	; 3
  b0:	09 f4       	brne	.+2      	; 0xb4 <DIO_enuSetPinDirection+0x22>
  b2:	43 c0       	rjmp	.+134    	; 0x13a <DIO_enuSetPinDirection+0xa8>
  b4:	5e c0       	rjmp	.+188    	; 0x172 <DIO_enuSetPinDirection+0xe0>
		{
			case DIO_PORTA:
			DDRA &= ~(DIO_MASK_BIT << Copy_u8PinID);
  b6:	81 e0       	ldi	r24, 0x01	; 1
  b8:	90 e0       	ldi	r25, 0x00	; 0
  ba:	06 2e       	mov	r0, r22
  bc:	02 c0       	rjmp	.+4      	; 0xc2 <DIO_enuSetPinDirection+0x30>
  be:	88 0f       	add	r24, r24
  c0:	99 1f       	adc	r25, r25
  c2:	0a 94       	dec	r0
  c4:	e2 f7       	brpl	.-8      	; 0xbe <DIO_enuSetPinDirection+0x2c>
  c6:	80 95       	com	r24
  c8:	2a b3       	in	r18, 0x1a	; 26
  ca:	28 23       	and	r18, r24
			DDRA |=  (Copy_u8Value << Copy_u8PinID);
  cc:	84 2f       	mov	r24, r20
  ce:	90 e0       	ldi	r25, 0x00	; 0
  d0:	02 c0       	rjmp	.+4      	; 0xd6 <DIO_enuSetPinDirection+0x44>
  d2:	88 0f       	add	r24, r24
  d4:	99 1f       	adc	r25, r25
  d6:	6a 95       	dec	r22
  d8:	e2 f7       	brpl	.-8      	; 0xd2 <DIO_enuSetPinDirection+0x40>
  da:	82 2b       	or	r24, r18
  dc:	8a bb       	out	0x1a, r24	; 26
			case DIO_PORTD:
			DDRD &= ~(DIO_MASK_BIT << Copy_u8PinID);
			DDRD |=  (Copy_u8Value << Copy_u8PinID);
			break;
		}
		Local_enuErrorState = ES_OK;
  de:	80 e0       	ldi	r24, 0x00	; 0
		switch(Copy_u8PortID)
		{
			case DIO_PORTA:
			DDRA &= ~(DIO_MASK_BIT << Copy_u8PinID);
			DDRA |=  (Copy_u8Value << Copy_u8PinID);
			break;
  e0:	08 95       	ret
			
			case DIO_PORTB:
			DDRB &= ~(DIO_MASK_BIT << Copy_u8PinID);
  e2:	21 e0       	ldi	r18, 0x01	; 1
  e4:	30 e0       	ldi	r19, 0x00	; 0
  e6:	06 2e       	mov	r0, r22
  e8:	02 c0       	rjmp	.+4      	; 0xee <DIO_enuSetPinDirection+0x5c>
  ea:	22 0f       	add	r18, r18
  ec:	33 1f       	adc	r19, r19
  ee:	0a 94       	dec	r0
  f0:	e2 f7       	brpl	.-8      	; 0xea <DIO_enuSetPinDirection+0x58>
  f2:	20 95       	com	r18
  f4:	87 b3       	in	r24, 0x17	; 23
  f6:	28 23       	and	r18, r24
			DDRB |=  (Copy_u8Value << Copy_u8PinID);
  f8:	84 2f       	mov	r24, r20
  fa:	90 e0       	ldi	r25, 0x00	; 0
  fc:	02 c0       	rjmp	.+4      	; 0x102 <DIO_enuSetPinDirection+0x70>
  fe:	88 0f       	add	r24, r24
 100:	99 1f       	adc	r25, r25
 102:	6a 95       	dec	r22
 104:	e2 f7       	brpl	.-8      	; 0xfe <DIO_enuSetPinDirection+0x6c>
 106:	82 2b       	or	r24, r18
 108:	87 bb       	out	0x17, r24	; 23
			case DIO_PORTD:
			DDRD &= ~(DIO_MASK_BIT << Copy_u8PinID);
			DDRD |=  (Copy_u8Value << Copy_u8PinID);
			break;
		}
		Local_enuErrorState = ES_OK;
 10a:	80 e0       	ldi	r24, 0x00	; 0
			break;
			
			case DIO_PORTB:
			DDRB &= ~(DIO_MASK_BIT << Copy_u8PinID);
			DDRB |=  (Copy_u8Value << Copy_u8PinID);
			break;
 10c:	08 95       	ret
			
			case DIO_PORTC:
			DDRC &= ~(DIO_MASK_BIT << Copy_u8PinID);
 10e:	21 e0       	ldi	r18, 0x01	; 1
 110:	30 e0       	ldi	r19, 0x00	; 0
 112:	06 2e       	mov	r0, r22
 114:	02 c0       	rjmp	.+4      	; 0x11a <DIO_enuSetPinDirection+0x88>
 116:	22 0f       	add	r18, r18
 118:	33 1f       	adc	r19, r19
 11a:	0a 94       	dec	r0
 11c:	e2 f7       	brpl	.-8      	; 0x116 <DIO_enuSetPinDirection+0x84>
 11e:	20 95       	com	r18
 120:	84 b3       	in	r24, 0x14	; 20
 122:	28 23       	and	r18, r24
			DDRC |=  (Copy_u8Value << Copy_u8PinID);
 124:	84 2f       	mov	r24, r20
 126:	90 e0       	ldi	r25, 0x00	; 0
 128:	02 c0       	rjmp	.+4      	; 0x12e <DIO_enuSetPinDirection+0x9c>
 12a:	88 0f       	add	r24, r24
 12c:	99 1f       	adc	r25, r25
 12e:	6a 95       	dec	r22
 130:	e2 f7       	brpl	.-8      	; 0x12a <DIO_enuSetPinDirection+0x98>
 132:	82 2b       	or	r24, r18
 134:	84 bb       	out	0x14, r24	; 20
			case DIO_PORTD:
			DDRD &= ~(DIO_MASK_BIT << Copy_u8PinID);
			DDRD |=  (Copy_u8Value << Copy_u8PinID);
			break;
		}
		Local_enuErrorState = ES_OK;
 136:	80 e0       	ldi	r24, 0x00	; 0
			break;
			
			case DIO_PORTC:
			DDRC &= ~(DIO_MASK_BIT << Copy_u8PinID);
			DDRC |=  (Copy_u8Value << Copy_u8PinID);
			break;
 138:	08 95       	ret
			
			case DIO_PORTD:
			DDRD &= ~(DIO_MASK_BIT << Copy_u8PinID);
 13a:	21 e0       	ldi	r18, 0x01	; 1
 13c:	30 e0       	ldi	r19, 0x00	; 0
 13e:	06 2e       	mov	r0, r22
 140:	02 c0       	rjmp	.+4      	; 0x146 <DIO_enuSetPinDirection+0xb4>
 142:	22 0f       	add	r18, r18
 144:	33 1f       	adc	r19, r19
 146:	0a 94       	dec	r0
 148:	e2 f7       	brpl	.-8      	; 0x142 <DIO_enuSetPinDirection+0xb0>
 14a:	20 95       	com	r18
 14c:	81 b3       	in	r24, 0x11	; 17
 14e:	28 23       	and	r18, r24
			DDRD |=  (Copy_u8Value << Copy_u8PinID);
 150:	84 2f       	mov	r24, r20
 152:	90 e0       	ldi	r25, 0x00	; 0
 154:	02 c0       	rjmp	.+4      	; 0x15a <DIO_enuSetPinDirection+0xc8>
 156:	88 0f       	add	r24, r24
 158:	99 1f       	adc	r25, r25
 15a:	6a 95       	dec	r22
 15c:	e2 f7       	brpl	.-8      	; 0x156 <DIO_enuSetPinDirection+0xc4>
 15e:	82 2b       	or	r24, r18
 160:	81 bb       	out	0x11, r24	; 17
			break;
		}
		Local_enuErrorState = ES_OK;
 162:	80 e0       	ldi	r24, 0x00	; 0
			break;
			
			case DIO_PORTD:
			DDRD &= ~(DIO_MASK_BIT << Copy_u8PinID);
			DDRD |=  (Copy_u8Value << Copy_u8PinID);
			break;
 164:	08 95       	ret
		}
		Local_enuErrorState = ES_OK;
	}
	else
	{
		Local_enuErrorState = ES_OUT_OF_RANGE;
 166:	83 e0       	ldi	r24, 0x03	; 3
 168:	08 95       	ret
 16a:	83 e0       	ldi	r24, 0x03	; 3
 16c:	08 95       	ret
 16e:	83 e0       	ldi	r24, 0x03	; 3
 170:	08 95       	ret
			case DIO_PORTD:
			DDRD &= ~(DIO_MASK_BIT << Copy_u8PinID);
			DDRD |=  (Copy_u8Value << Copy_u8PinID);
			break;
		}
		Local_enuErrorState = ES_OK;
 172:	80 e0       	ldi	r24, 0x00	; 0
	{
		Local_enuErrorState = ES_OUT_OF_RANGE;
	}
	
	return Local_enuErrorState;
}
 174:	08 95       	ret

00000176 <DIO_enuSetPinVal>:
**/
ES_t DIO_enuSetPinVal(u8 Copy_u8PortID, u8 Copy_u8PinID, u8 Copy_u8Value)
{
	ES_t Local_enuErrorState = ES_NOK;
	
	if(Copy_u8PortID <= DIO_PORTD && Copy_u8PinID <= DIO_PIN7 && Copy_u8Value <= OUTPUT)
 176:	84 30       	cpi	r24, 0x04	; 4
 178:	08 f0       	brcs	.+2      	; 0x17c <DIO_enuSetPinVal+0x6>
 17a:	67 c0       	rjmp	.+206    	; 0x24a <DIO_enuSetPinVal+0xd4>
 17c:	68 30       	cpi	r22, 0x08	; 8
 17e:	08 f0       	brcs	.+2      	; 0x182 <DIO_enuSetPinVal+0xc>
 180:	66 c0       	rjmp	.+204    	; 0x24e <DIO_enuSetPinVal+0xd8>
 182:	42 30       	cpi	r20, 0x02	; 2
 184:	08 f0       	brcs	.+2      	; 0x188 <DIO_enuSetPinVal+0x12>
 186:	65 c0       	rjmp	.+202    	; 0x252 <DIO_enuSetPinVal+0xdc>
	{
		switch(Copy_u8PortID)
 188:	81 30       	cpi	r24, 0x01	; 1
 18a:	e9 f0       	breq	.+58     	; 0x1c6 <DIO_enuSetPinVal+0x50>
 18c:	30 f0       	brcs	.+12     	; 0x19a <DIO_enuSetPinVal+0x24>
 18e:	82 30       	cpi	r24, 0x02	; 2
 190:	81 f1       	breq	.+96     	; 0x1f2 <DIO_enuSetPinVal+0x7c>
 192:	83 30       	cpi	r24, 0x03	; 3
 194:	09 f4       	brne	.+2      	; 0x198 <DIO_enuSetPinVal+0x22>
 196:	43 c0       	rjmp	.+134    	; 0x21e <DIO_enuSetPinVal+0xa8>
 198:	5e c0       	rjmp	.+188    	; 0x256 <DIO_enuSetPinVal+0xe0>
		{
			case DIO_PORTA:
			PORTA &= ~(DIO_MASK_BIT << Copy_u8PinID);
 19a:	81 e0       	ldi	r24, 0x01	; 1
 19c:	90 e0       	ldi	r25, 0x00	; 0
 19e:	06 2e       	mov	r0, r22
 1a0:	02 c0       	rjmp	.+4      	; 0x1a6 <DIO_enuSetPinVal+0x30>
 1a2:	88 0f       	add	r24, r24
 1a4:	99 1f       	adc	r25, r25
 1a6:	0a 94       	dec	r0
 1a8:	e2 f7       	brpl	.-8      	; 0x1a2 <DIO_enuSetPinVal+0x2c>
 1aa:	80 95       	com	r24
 1ac:	2b b3       	in	r18, 0x1b	; 27
 1ae:	28 23       	and	r18, r24
			PORTA |=  (Copy_u8Value << Copy_u8PinID);
 1b0:	84 2f       	mov	r24, r20
 1b2:	90 e0       	ldi	r25, 0x00	; 0
 1b4:	02 c0       	rjmp	.+4      	; 0x1ba <DIO_enuSetPinVal+0x44>
 1b6:	88 0f       	add	r24, r24
 1b8:	99 1f       	adc	r25, r25
 1ba:	6a 95       	dec	r22
 1bc:	e2 f7       	brpl	.-8      	; 0x1b6 <DIO_enuSetPinVal+0x40>
 1be:	82 2b       	or	r24, r18
 1c0:	8b bb       	out	0x1b, r24	; 27
			case DIO_PORTD:
			PORTD &= ~(DIO_MASK_BIT << Copy_u8PinID);
			PORTD |=  (Copy_u8Value << Copy_u8PinID);
			break;
		}
		Local_enuErrorState = ES_OK;
 1c2:	80 e0       	ldi	r24, 0x00	; 0
		switch(Copy_u8PortID)
		{
			case DIO_PORTA:
			PORTA &= ~(DIO_MASK_BIT << Copy_u8PinID);
			PORTA |=  (Copy_u8Value << Copy_u8PinID);
			break;
 1c4:	08 95       	ret
			
			case DIO_PORTB:
			PORTB &= ~(DIO_MASK_BIT << Copy_u8PinID);
 1c6:	21 e0       	ldi	r18, 0x01	; 1
 1c8:	30 e0       	ldi	r19, 0x00	; 0
 1ca:	06 2e       	mov	r0, r22
 1cc:	02 c0       	rjmp	.+4      	; 0x1d2 <DIO_enuSetPinVal+0x5c>
 1ce:	22 0f       	add	r18, r18
 1d0:	33 1f       	adc	r19, r19
 1d2:	0a 94       	dec	r0
 1d4:	e2 f7       	brpl	.-8      	; 0x1ce <DIO_enuSetPinVal+0x58>
 1d6:	20 95       	com	r18
 1d8:	88 b3       	in	r24, 0x18	; 24
 1da:	28 23       	and	r18, r24
			PORTB |=  (Copy_u8Value << Copy_u8PinID);
 1dc:	84 2f       	mov	r24, r20
 1de:	90 e0       	ldi	r25, 0x00	; 0
 1e0:	02 c0       	rjmp	.+4      	; 0x1e6 <DIO_enuSetPinVal+0x70>
 1e2:	88 0f       	add	r24, r24
 1e4:	99 1f       	adc	r25, r25
 1e6:	6a 95       	dec	r22
 1e8:	e2 f7       	brpl	.-8      	; 0x1e2 <DIO_enuSetPinVal+0x6c>
 1ea:	82 2b       	or	r24, r18
 1ec:	88 bb       	out	0x18, r24	; 24
			case DIO_PORTD:
			PORTD &= ~(DIO_MASK_BIT << Copy_u8PinID);
			PORTD |=  (Copy_u8Value << Copy_u8PinID);
			break;
		}
		Local_enuErrorState = ES_OK;
 1ee:	80 e0       	ldi	r24, 0x00	; 0
			break;
			
			case DIO_PORTB:
			PORTB &= ~(DIO_MASK_BIT << Copy_u8PinID);
			PORTB |=  (Copy_u8Value << Copy_u8PinID);
			break;
 1f0:	08 95       	ret
			
			case DIO_PORTC:
			PORTC &= ~(DIO_MASK_BIT << Copy_u8PinID);
 1f2:	21 e0       	ldi	r18, 0x01	; 1
 1f4:	30 e0       	ldi	r19, 0x00	; 0
 1f6:	06 2e       	mov	r0, r22
 1f8:	02 c0       	rjmp	.+4      	; 0x1fe <DIO_enuSetPinVal+0x88>
 1fa:	22 0f       	add	r18, r18
 1fc:	33 1f       	adc	r19, r19
 1fe:	0a 94       	dec	r0
 200:	e2 f7       	brpl	.-8      	; 0x1fa <DIO_enuSetPinVal+0x84>
 202:	20 95       	com	r18
 204:	85 b3       	in	r24, 0x15	; 21
 206:	28 23       	and	r18, r24
			PORTC |=  (Copy_u8Value << Copy_u8PinID);
 208:	84 2f       	mov	r24, r20
 20a:	90 e0       	ldi	r25, 0x00	; 0
 20c:	02 c0       	rjmp	.+4      	; 0x212 <DIO_enuSetPinVal+0x9c>
 20e:	88 0f       	add	r24, r24
 210:	99 1f       	adc	r25, r25
 212:	6a 95       	dec	r22
 214:	e2 f7       	brpl	.-8      	; 0x20e <DIO_enuSetPinVal+0x98>
 216:	82 2b       	or	r24, r18
 218:	85 bb       	out	0x15, r24	; 21
			case DIO_PORTD:
			PORTD &= ~(DIO_MASK_BIT << Copy_u8PinID);
			PORTD |=  (Copy_u8Value << Copy_u8PinID);
			break;
		}
		Local_enuErrorState = ES_OK;
 21a:	80 e0       	ldi	r24, 0x00	; 0
			break;
			
			case DIO_PORTC:
			PORTC &= ~(DIO_MASK_BIT << Copy_u8PinID);
			PORTC |=  (Copy_u8Value << Copy_u8PinID);
			break;
 21c:	08 95       	ret
			
			case DIO_PORTD:
			PORTD &= ~(DIO_MASK_BIT << Copy_u8PinID);
 21e:	21 e0       	ldi	r18, 0x01	; 1
 220:	30 e0       	ldi	r19, 0x00	; 0
 222:	06 2e       	mov	r0, r22
 224:	02 c0       	rjmp	.+4      	; 0x22a <DIO_enuSetPinVal+0xb4>
 226:	22 0f       	add	r18, r18
 228:	33 1f       	adc	r19, r19
 22a:	0a 94       	dec	r0
 22c:	e2 f7       	brpl	.-8      	; 0x226 <DIO_enuSetPinVal+0xb0>
 22e:	20 95       	com	r18
 230:	82 b3       	in	r24, 0x12	; 18
 232:	28 23       	and	r18, r24
			PORTD |=  (Copy_u8Value << Copy_u8PinID);
 234:	84 2f       	mov	r24, r20
 236:	90 e0       	ldi	r25, 0x00	; 0
 238:	02 c0       	rjmp	.+4      	; 0x23e <DIO_enuSetPinVal+0xc8>
 23a:	88 0f       	add	r24, r24
 23c:	99 1f       	adc	r25, r25
 23e:	6a 95       	dec	r22
 240:	e2 f7       	brpl	.-8      	; 0x23a <DIO_enuSetPinVal+0xc4>
 242:	82 2b       	or	r24, r18
 244:	82 bb       	out	0x12, r24	; 18
			break;
		}
		Local_enuErrorState = ES_OK;
 246:	80 e0       	ldi	r24, 0x00	; 0
			break;
			
			case DIO_PORTD:
			PORTD &= ~(DIO_MASK_BIT << Copy_u8PinID);
			PORTD |=  (Copy_u8Value << Copy_u8PinID);
			break;
 248:	08 95       	ret
		}
		Local_enuErrorState = ES_OK;
	}
	else
	{
		Local_enuErrorState = ES_OUT_OF_RANGE;
 24a:	83 e0       	ldi	r24, 0x03	; 3
 24c:	08 95       	ret
 24e:	83 e0       	ldi	r24, 0x03	; 3
 250:	08 95       	ret
 252:	83 e0       	ldi	r24, 0x03	; 3
 254:	08 95       	ret
			case DIO_PORTD:
			PORTD &= ~(DIO_MASK_BIT << Copy_u8PinID);
			PORTD |=  (Copy_u8Value << Copy_u8PinID);
			break;
		}
		Local_enuErrorState = ES_OK;
 256:	80 e0       	ldi	r24, 0x00	; 0
	{
		Local_enuErrorState = ES_OUT_OF_RANGE;
	}
	
	return Local_enuErrorState;
}
 258:	08 95       	ret

0000025a <DIO_enuGetPinVal>:
**/
ES_t DIO_enuGetPinVal(u8 Copy_u8PortID, u8 Copy_u8PinID, u8 *Copy_pu8Value)
{
	ES_t Local_enuErrorState = ES_NOK;
	
	if(Copy_pu8Value != NULL)
 25a:	41 15       	cp	r20, r1
 25c:	51 05       	cpc	r21, r1
 25e:	e1 f1       	breq	.+120    	; 0x2d8 <DIO_enuGetPinVal+0x7e>
	{
		if(Copy_u8PortID <= DIO_PORTD && Copy_u8PinID <= DIO_PIN7)
 260:	84 30       	cpi	r24, 0x04	; 4
 262:	e0 f5       	brcc	.+120    	; 0x2dc <DIO_enuGetPinVal+0x82>
 264:	68 30       	cpi	r22, 0x08	; 8
 266:	e0 f5       	brcc	.+120    	; 0x2e0 <DIO_enuGetPinVal+0x86>
		{
			switch(Copy_u8PortID)
 268:	81 30       	cpi	r24, 0x01	; 1
 26a:	91 f0       	breq	.+36     	; 0x290 <DIO_enuGetPinVal+0x36>
 26c:	28 f0       	brcs	.+10     	; 0x278 <DIO_enuGetPinVal+0x1e>
 26e:	82 30       	cpi	r24, 0x02	; 2
 270:	d9 f0       	breq	.+54     	; 0x2a8 <DIO_enuGetPinVal+0x4e>
 272:	83 30       	cpi	r24, 0x03	; 3
 274:	29 f1       	breq	.+74     	; 0x2c0 <DIO_enuGetPinVal+0x66>
 276:	36 c0       	rjmp	.+108    	; 0x2e4 <DIO_enuGetPinVal+0x8a>
			{
				case DIO_PORTA:
				*Copy_pu8Value = ((PINA >> Copy_u8PinID) & DIO_MASK_BIT);
 278:	89 b3       	in	r24, 0x19	; 25
 27a:	90 e0       	ldi	r25, 0x00	; 0
 27c:	02 c0       	rjmp	.+4      	; 0x282 <DIO_enuGetPinVal+0x28>
 27e:	95 95       	asr	r25
 280:	87 95       	ror	r24
 282:	6a 95       	dec	r22
 284:	e2 f7       	brpl	.-8      	; 0x27e <DIO_enuGetPinVal+0x24>
 286:	81 70       	andi	r24, 0x01	; 1
 288:	fa 01       	movw	r30, r20
 28a:	80 83       	st	Z, r24
		}
		else
		{
			Local_enuErrorState = ES_OUT_OF_RANGE;
		}
		Local_enuErrorState = ES_OK;
 28c:	80 e0       	ldi	r24, 0x00	; 0
		{
			switch(Copy_u8PortID)
			{
				case DIO_PORTA:
				*Copy_pu8Value = ((PINA >> Copy_u8PinID) & DIO_MASK_BIT);
				break;
 28e:	08 95       	ret
				
				case DIO_PORTB:
				*Copy_pu8Value = ((PINB >> Copy_u8PinID) & DIO_MASK_BIT);
 290:	86 b3       	in	r24, 0x16	; 22
 292:	90 e0       	ldi	r25, 0x00	; 0
 294:	02 c0       	rjmp	.+4      	; 0x29a <DIO_enuGetPinVal+0x40>
 296:	95 95       	asr	r25
 298:	87 95       	ror	r24
 29a:	6a 95       	dec	r22
 29c:	e2 f7       	brpl	.-8      	; 0x296 <DIO_enuGetPinVal+0x3c>
 29e:	81 70       	andi	r24, 0x01	; 1
 2a0:	fa 01       	movw	r30, r20
 2a2:	80 83       	st	Z, r24
		}
		else
		{
			Local_enuErrorState = ES_OUT_OF_RANGE;
		}
		Local_enuErrorState = ES_OK;
 2a4:	80 e0       	ldi	r24, 0x00	; 0
				*Copy_pu8Value = ((PINA >> Copy_u8PinID) & DIO_MASK_BIT);
				break;
				
				case DIO_PORTB:
				*Copy_pu8Value = ((PINB >> Copy_u8PinID) & DIO_MASK_BIT);
				break;
 2a6:	08 95       	ret
				
				case DIO_PORTC:
				*Copy_pu8Value = ((PINC >> Copy_u8PinID) & DIO_MASK_BIT);
 2a8:	83 b3       	in	r24, 0x13	; 19
 2aa:	90 e0       	ldi	r25, 0x00	; 0
 2ac:	02 c0       	rjmp	.+4      	; 0x2b2 <DIO_enuGetPinVal+0x58>
 2ae:	95 95       	asr	r25
 2b0:	87 95       	ror	r24
 2b2:	6a 95       	dec	r22
 2b4:	e2 f7       	brpl	.-8      	; 0x2ae <DIO_enuGetPinVal+0x54>
 2b6:	81 70       	andi	r24, 0x01	; 1
 2b8:	fa 01       	movw	r30, r20
 2ba:	80 83       	st	Z, r24
		}
		else
		{
			Local_enuErrorState = ES_OUT_OF_RANGE;
		}
		Local_enuErrorState = ES_OK;
 2bc:	80 e0       	ldi	r24, 0x00	; 0
				*Copy_pu8Value = ((PINB >> Copy_u8PinID) & DIO_MASK_BIT);
				break;
				
				case DIO_PORTC:
				*Copy_pu8Value = ((PINC >> Copy_u8PinID) & DIO_MASK_BIT);
				break;
 2be:	08 95       	ret
				
				case DIO_PORTD:
				*Copy_pu8Value = ((PIND >> Copy_u8PinID) & DIO_MASK_BIT);
 2c0:	80 b3       	in	r24, 0x10	; 16
 2c2:	90 e0       	ldi	r25, 0x00	; 0
 2c4:	02 c0       	rjmp	.+4      	; 0x2ca <DIO_enuGetPinVal+0x70>
 2c6:	95 95       	asr	r25
 2c8:	87 95       	ror	r24
 2ca:	6a 95       	dec	r22
 2cc:	e2 f7       	brpl	.-8      	; 0x2c6 <DIO_enuGetPinVal+0x6c>
 2ce:	81 70       	andi	r24, 0x01	; 1
 2d0:	fa 01       	movw	r30, r20
 2d2:	80 83       	st	Z, r24
		}
		else
		{
			Local_enuErrorState = ES_OUT_OF_RANGE;
		}
		Local_enuErrorState = ES_OK;
 2d4:	80 e0       	ldi	r24, 0x00	; 0
				*Copy_pu8Value = ((PINC >> Copy_u8PinID) & DIO_MASK_BIT);
				break;
				
				case DIO_PORTD:
				*Copy_pu8Value = ((PIND >> Copy_u8PinID) & DIO_MASK_BIT);
				break;
 2d6:	08 95       	ret
		}
		Local_enuErrorState = ES_OK;
	}
	else
	{
		Local_enuErrorState = ES_NULL_POINTER;
 2d8:	82 e0       	ldi	r24, 0x02	; 2
 2da:	08 95       	ret
		}
		else
		{
			Local_enuErrorState = ES_OUT_OF_RANGE;
		}
		Local_enuErrorState = ES_OK;
 2dc:	80 e0       	ldi	r24, 0x00	; 0
 2de:	08 95       	ret
 2e0:	80 e0       	ldi	r24, 0x00	; 0
 2e2:	08 95       	ret
 2e4:	80 e0       	ldi	r24, 0x00	; 0
	{
		Local_enuErrorState = ES_NULL_POINTER;
	}
	
	return Local_enuErrorState;
}
 2e6:	08 95       	ret

000002e8 <KEYPAD_enuInit>:
{
	ES_t Local_u8ErrorState = ES_NOK;
	
	/* Configure Column pins as output high */
	/* Output */
	Local_u8ErrorState = DIO_enuSetPinDirection(KEYPAD_C1_PORT, KEYPAD_C1_PIN, DIO_u8OUTPUT);
 2e8:	41 e0       	ldi	r20, 0x01	; 1
 2ea:	60 e0       	ldi	r22, 0x00	; 0
 2ec:	82 e0       	ldi	r24, 0x02	; 2
 2ee:	0e 94 49 00 	call	0x92	; 0x92 <DIO_enuSetPinDirection>
	Local_u8ErrorState = DIO_enuSetPinDirection(KEYPAD_C2_PORT, KEYPAD_C2_PIN, DIO_u8OUTPUT);
 2f2:	41 e0       	ldi	r20, 0x01	; 1
 2f4:	61 e0       	ldi	r22, 0x01	; 1
 2f6:	82 e0       	ldi	r24, 0x02	; 2
 2f8:	0e 94 49 00 	call	0x92	; 0x92 <DIO_enuSetPinDirection>
	Local_u8ErrorState = DIO_enuSetPinDirection(KEYPAD_C3_PORT, KEYPAD_C3_PIN, DIO_u8OUTPUT);
 2fc:	41 e0       	ldi	r20, 0x01	; 1
 2fe:	62 e0       	ldi	r22, 0x02	; 2
 300:	82 e0       	ldi	r24, 0x02	; 2
 302:	0e 94 49 00 	call	0x92	; 0x92 <DIO_enuSetPinDirection>
	Local_u8ErrorState = DIO_enuSetPinDirection(KEYPAD_C4_PORT, KEYPAD_C4_PIN, DIO_u8OUTPUT);
 306:	41 e0       	ldi	r20, 0x01	; 1
 308:	63 e0       	ldi	r22, 0x03	; 3
 30a:	82 e0       	ldi	r24, 0x02	; 2
 30c:	0e 94 49 00 	call	0x92	; 0x92 <DIO_enuSetPinDirection>
	
	/* High */
	Local_u8ErrorState = DIO_enuSetPinVal(KEYPAD_C1_PORT, KEYPAD_C1_PIN, DIO_u8HIGH);
 310:	41 e0       	ldi	r20, 0x01	; 1
 312:	60 e0       	ldi	r22, 0x00	; 0
 314:	82 e0       	ldi	r24, 0x02	; 2
 316:	0e 94 bb 00 	call	0x176	; 0x176 <DIO_enuSetPinVal>
	Local_u8ErrorState = DIO_enuSetPinVal(KEYPAD_C2_PORT, KEYPAD_C2_PIN, DIO_u8HIGH);
 31a:	41 e0       	ldi	r20, 0x01	; 1
 31c:	61 e0       	ldi	r22, 0x01	; 1
 31e:	82 e0       	ldi	r24, 0x02	; 2
 320:	0e 94 bb 00 	call	0x176	; 0x176 <DIO_enuSetPinVal>
	Local_u8ErrorState = DIO_enuSetPinVal(KEYPAD_C3_PORT, KEYPAD_C3_PIN, DIO_u8HIGH);
 324:	41 e0       	ldi	r20, 0x01	; 1
 326:	62 e0       	ldi	r22, 0x02	; 2
 328:	82 e0       	ldi	r24, 0x02	; 2
 32a:	0e 94 bb 00 	call	0x176	; 0x176 <DIO_enuSetPinVal>
	Local_u8ErrorState = DIO_enuSetPinVal(KEYPAD_C4_PORT, KEYPAD_C4_PIN, DIO_u8HIGH);
 32e:	41 e0       	ldi	r20, 0x01	; 1
 330:	63 e0       	ldi	r22, 0x03	; 3
 332:	82 e0       	ldi	r24, 0x02	; 2
 334:	0e 94 bb 00 	call	0x176	; 0x176 <DIO_enuSetPinVal>
	
	/* Configure Row pins as input pull-up */
	/* Input */
	Local_u8ErrorState = DIO_enuSetPinDirection(KEYPAD_R1_PORT, KEYPAD_R1_PIN, DIO_u8INPUT);
 338:	40 e0       	ldi	r20, 0x00	; 0
 33a:	64 e0       	ldi	r22, 0x04	; 4
 33c:	82 e0       	ldi	r24, 0x02	; 2
 33e:	0e 94 49 00 	call	0x92	; 0x92 <DIO_enuSetPinDirection>
	Local_u8ErrorState = DIO_enuSetPinDirection(KEYPAD_R2_PORT, KEYPAD_R2_PIN, DIO_u8INPUT);
 342:	40 e0       	ldi	r20, 0x00	; 0
 344:	65 e0       	ldi	r22, 0x05	; 5
 346:	82 e0       	ldi	r24, 0x02	; 2
 348:	0e 94 49 00 	call	0x92	; 0x92 <DIO_enuSetPinDirection>
	Local_u8ErrorState = DIO_enuSetPinDirection(KEYPAD_R3_PORT, KEYPAD_R3_PIN, DIO_u8INPUT);
 34c:	40 e0       	ldi	r20, 0x00	; 0
 34e:	66 e0       	ldi	r22, 0x06	; 6
 350:	82 e0       	ldi	r24, 0x02	; 2
 352:	0e 94 49 00 	call	0x92	; 0x92 <DIO_enuSetPinDirection>
	Local_u8ErrorState = DIO_enuSetPinDirection(KEYPAD_R4_PORT, KEYPAD_R4_PIN, DIO_u8INPUT);
 356:	40 e0       	ldi	r20, 0x00	; 0
 358:	67 e0       	ldi	r22, 0x07	; 7
 35a:	82 e0       	ldi	r24, 0x02	; 2
 35c:	0e 94 49 00 	call	0x92	; 0x92 <DIO_enuSetPinDirection>
	
	/* Pull-UP */
	Local_u8ErrorState = DIO_enuSetPinVal(KEYPAD_R1_PORT, KEYPAD_R1_PIN, DIO_u8PULL_UP);
 360:	41 e0       	ldi	r20, 0x01	; 1
 362:	64 e0       	ldi	r22, 0x04	; 4
 364:	82 e0       	ldi	r24, 0x02	; 2
 366:	0e 94 bb 00 	call	0x176	; 0x176 <DIO_enuSetPinVal>
	Local_u8ErrorState = DIO_enuSetPinVal(KEYPAD_R2_PORT, KEYPAD_R2_PIN, DIO_u8PULL_UP);
 36a:	41 e0       	ldi	r20, 0x01	; 1
 36c:	65 e0       	ldi	r22, 0x05	; 5
 36e:	82 e0       	ldi	r24, 0x02	; 2
 370:	0e 94 bb 00 	call	0x176	; 0x176 <DIO_enuSetPinVal>
	Local_u8ErrorState = DIO_enuSetPinVal(KEYPAD_R3_PORT, KEYPAD_R3_PIN, DIO_u8PULL_UP);
 374:	41 e0       	ldi	r20, 0x01	; 1
 376:	66 e0       	ldi	r22, 0x06	; 6
 378:	82 e0       	ldi	r24, 0x02	; 2
 37a:	0e 94 bb 00 	call	0x176	; 0x176 <DIO_enuSetPinVal>
	Local_u8ErrorState = DIO_enuSetPinVal(KEYPAD_R4_PORT, KEYPAD_R4_PIN, DIO_u8PULL_UP);
 37e:	41 e0       	ldi	r20, 0x01	; 1
 380:	67 e0       	ldi	r22, 0x07	; 7
 382:	82 e0       	ldi	r24, 0x02	; 2
 384:	0e 94 bb 00 	call	0x176	; 0x176 <DIO_enuSetPinVal>
	
	return Local_u8ErrorState;
}
 388:	08 95       	ret

0000038a <KEYPAD_u8GetPressedKey>:
 * @retval		: it returns the Key pressed
 * @note		: none
 ******************************************************************************
**/
u8 KEYPAD_u8GetPressedKey(void)
{
 38a:	cf 92       	push	r12
 38c:	df 92       	push	r13
 38e:	ef 92       	push	r14
 390:	ff 92       	push	r15
 392:	0f 93       	push	r16
 394:	1f 93       	push	r17
 396:	cf 93       	push	r28
 398:	df 93       	push	r29
 39a:	1f 92       	push	r1
 39c:	cd b7       	in	r28, 0x3d	; 61
 39e:	de b7       	in	r29, 0x3e	; 62
	static u8 Local_KEYPAD_CHAR[ROW_NUM][COLUMN_NUM] = KEYPAD_CHARACTERS;
	
	u8 Local_u8ColumnIndex, Local_u8RowIndex, Local_u8PinState;
	u8 Local_u8PressedKey = KEYPAD_No_Key_Pressed;
	
	for(Local_u8ColumnIndex = 0; Local_u8ColumnIndex < COLUMN_NUM; Local_u8ColumnIndex++)
 3a0:	00 e0       	ldi	r16, 0x00	; 0
 3a2:	4e c0       	rjmp	.+156    	; 0x440 <__EEPROM_REGION_LENGTH__+0x40>
	{
		/* Active the current column */
		DIO_enuSetPinVal(Local_Au8ColumnsPorts[Local_u8ColumnIndex], Local_Au8ColumnsPins[Local_u8ColumnIndex], DIO_u8LOW);
 3a4:	c0 2e       	mov	r12, r16
 3a6:	d1 2c       	mov	r13, r1
 3a8:	d6 01       	movw	r26, r12
 3aa:	a4 58       	subi	r26, 0x84	; 132
 3ac:	bf 4f       	sbci	r27, 0xFF	; 255
 3ae:	f6 01       	movw	r30, r12
 3b0:	e8 58       	subi	r30, 0x88	; 136
 3b2:	ff 4f       	sbci	r31, 0xFF	; 255
 3b4:	40 e0       	ldi	r20, 0x00	; 0
 3b6:	6c 91       	ld	r22, X
 3b8:	80 81       	ld	r24, Z
 3ba:	0e 94 bb 00 	call	0x176	; 0x176 <DIO_enuSetPinVal>
		
		for(Local_u8RowIndex = 0; Local_u8RowIndex < ROW_NUM; Local_u8RowIndex++)
 3be:	10 e0       	ldi	r17, 0x00	; 0
 3c0:	31 c0       	rjmp	.+98     	; 0x424 <__EEPROM_REGION_LENGTH__+0x24>
		{
			/* iterate on reading Row pins value */
			DIO_enuGetPinVal(Local_Au8RowsPorts[Local_u8RowIndex], Local_Au8RowsPins[Local_u8RowIndex], &Local_u8PinState);
 3c2:	e1 2e       	mov	r14, r17
 3c4:	f1 2c       	mov	r15, r1
 3c6:	d7 01       	movw	r26, r14
 3c8:	ac 58       	subi	r26, 0x8C	; 140
 3ca:	bf 4f       	sbci	r27, 0xFF	; 255
 3cc:	f7 01       	movw	r30, r14
 3ce:	e0 59       	subi	r30, 0x90	; 144
 3d0:	ff 4f       	sbci	r31, 0xFF	; 255
 3d2:	ae 01       	movw	r20, r28
 3d4:	4f 5f       	subi	r20, 0xFF	; 255
 3d6:	5f 4f       	sbci	r21, 0xFF	; 255
 3d8:	6c 91       	ld	r22, X
 3da:	80 81       	ld	r24, Z
 3dc:	0e 94 2d 01 	call	0x25a	; 0x25a <DIO_enuGetPinVal>
			
			if(DIO_u8LOW == Local_u8PinState)
 3e0:	89 81       	ldd	r24, Y+1	; 0x01
 3e2:	81 11       	cpse	r24, r1
 3e4:	1e c0       	rjmp	.+60     	; 0x422 <__EEPROM_REGION_LENGTH__+0x22>
			{
				Local_u8PressedKey = Local_KEYPAD_CHAR[Local_u8RowIndex][Local_u8ColumnIndex];
 3e6:	c7 01       	movw	r24, r14
 3e8:	88 0f       	add	r24, r24
 3ea:	99 1f       	adc	r25, r25
 3ec:	88 0f       	add	r24, r24
 3ee:	99 1f       	adc	r25, r25
 3f0:	80 5a       	subi	r24, 0xA0	; 160
 3f2:	9f 4f       	sbci	r25, 0xFF	; 255
 3f4:	fc 01       	movw	r30, r24
 3f6:	ec 0d       	add	r30, r12
 3f8:	fd 1d       	adc	r31, r13
 3fa:	10 81       	ld	r17, Z
				
				/* single press */
				while(DIO_u8LOW == Local_u8PinState)
 3fc:	0d c0       	rjmp	.+26     	; 0x418 <__EEPROM_REGION_LENGTH__+0x18>
				{
					DIO_enuGetPinVal(Local_Au8RowsPorts[Local_u8RowIndex], Local_Au8RowsPins[Local_u8RowIndex], &Local_u8PinState);
 3fe:	ae 01       	movw	r20, r28
 400:	4f 5f       	subi	r20, 0xFF	; 255
 402:	5f 4f       	sbci	r21, 0xFF	; 255
 404:	f7 01       	movw	r30, r14
 406:	ec 58       	subi	r30, 0x8C	; 140
 408:	ff 4f       	sbci	r31, 0xFF	; 255
 40a:	60 81       	ld	r22, Z
 40c:	f7 01       	movw	r30, r14
 40e:	e0 59       	subi	r30, 0x90	; 144
 410:	ff 4f       	sbci	r31, 0xFF	; 255
 412:	80 81       	ld	r24, Z
 414:	0e 94 2d 01 	call	0x25a	; 0x25a <DIO_enuGetPinVal>
			if(DIO_u8LOW == Local_u8PinState)
			{
				Local_u8PressedKey = Local_KEYPAD_CHAR[Local_u8RowIndex][Local_u8ColumnIndex];
				
				/* single press */
				while(DIO_u8LOW == Local_u8PinState)
 418:	99 81       	ldd	r25, Y+1	; 0x01
 41a:	99 23       	and	r25, r25
 41c:	81 f3       	breq	.-32     	; 0x3fe <KEYPAD_u8GetPressedKey+0x74>
				{
					DIO_enuGetPinVal(Local_Au8RowsPorts[Local_u8RowIndex], Local_Au8RowsPins[Local_u8RowIndex], &Local_u8PinState);
				}
				return Local_u8PressedKey;
 41e:	81 2f       	mov	r24, r17
 420:	13 c0       	rjmp	.+38     	; 0x448 <__EEPROM_REGION_LENGTH__+0x48>
	for(Local_u8ColumnIndex = 0; Local_u8ColumnIndex < COLUMN_NUM; Local_u8ColumnIndex++)
	{
		/* Active the current column */
		DIO_enuSetPinVal(Local_Au8ColumnsPorts[Local_u8ColumnIndex], Local_Au8ColumnsPins[Local_u8ColumnIndex], DIO_u8LOW);
		
		for(Local_u8RowIndex = 0; Local_u8RowIndex < ROW_NUM; Local_u8RowIndex++)
 422:	1f 5f       	subi	r17, 0xFF	; 255
 424:	14 30       	cpi	r17, 0x04	; 4
 426:	68 f2       	brcs	.-102    	; 0x3c2 <KEYPAD_u8GetPressedKey+0x38>
				return Local_u8PressedKey;
			}
		}
		
		/* Deactive the current column */
		DIO_enuSetPinVal(Local_Au8ColumnsPorts[Local_u8ColumnIndex], Local_Au8ColumnsPins[Local_u8ColumnIndex], DIO_u8HIGH);
 428:	d6 01       	movw	r26, r12
 42a:	a4 58       	subi	r26, 0x84	; 132
 42c:	bf 4f       	sbci	r27, 0xFF	; 255
 42e:	f6 01       	movw	r30, r12
 430:	e8 58       	subi	r30, 0x88	; 136
 432:	ff 4f       	sbci	r31, 0xFF	; 255
 434:	41 e0       	ldi	r20, 0x01	; 1
 436:	6c 91       	ld	r22, X
 438:	80 81       	ld	r24, Z
 43a:	0e 94 bb 00 	call	0x176	; 0x176 <DIO_enuSetPinVal>
	static u8 Local_KEYPAD_CHAR[ROW_NUM][COLUMN_NUM] = KEYPAD_CHARACTERS;
	
	u8 Local_u8ColumnIndex, Local_u8RowIndex, Local_u8PinState;
	u8 Local_u8PressedKey = KEYPAD_No_Key_Pressed;
	
	for(Local_u8ColumnIndex = 0; Local_u8ColumnIndex < COLUMN_NUM; Local_u8ColumnIndex++)
 43e:	0f 5f       	subi	r16, 0xFF	; 255
 440:	04 30       	cpi	r16, 0x04	; 4
 442:	08 f4       	brcc	.+2      	; 0x446 <__EEPROM_REGION_LENGTH__+0x46>
 444:	af cf       	rjmp	.-162    	; 0x3a4 <KEYPAD_u8GetPressedKey+0x1a>
		/* Deactive the current column */
		DIO_enuSetPinVal(Local_Au8ColumnsPorts[Local_u8ColumnIndex], Local_Au8ColumnsPins[Local_u8ColumnIndex], DIO_u8HIGH);
	}
	
	
	return Local_u8PressedKey;
 446:	8f ef       	ldi	r24, 0xFF	; 255
 448:	0f 90       	pop	r0
 44a:	df 91       	pop	r29
 44c:	cf 91       	pop	r28
 44e:	1f 91       	pop	r17
 450:	0f 91       	pop	r16
 452:	ff 90       	pop	r15
 454:	ef 90       	pop	r14
 456:	df 90       	pop	r13
 458:	cf 90       	pop	r12
 45a:	08 95       	ret

0000045c <LCD_vidTrigger_LATCH>:
	
	/* Call Latch Function */
	Local_enuErrorState = LCD_enuLatch(Copy_u8Command);
	
	return Local_enuErrorState;
}
 45c:	41 e0       	ldi	r20, 0x01	; 1
 45e:	62 e0       	ldi	r22, 0x02	; 2
 460:	80 e0       	ldi	r24, 0x00	; 0
 462:	0e 94 bb 00 	call	0x176	; 0x176 <DIO_enuSetPinVal>
 466:	83 ec       	ldi	r24, 0xC3	; 195
 468:	99 e0       	ldi	r25, 0x09	; 9
 46a:	01 97       	sbiw	r24, 0x01	; 1
 46c:	f1 f7       	brne	.-4      	; 0x46a <LCD_vidTrigger_LATCH+0xe>
 46e:	00 c0       	rjmp	.+0      	; 0x470 <LCD_vidTrigger_LATCH+0x14>
 470:	00 00       	nop
 472:	40 e0       	ldi	r20, 0x00	; 0
 474:	62 e0       	ldi	r22, 0x02	; 2
 476:	80 e0       	ldi	r24, 0x00	; 0
 478:	0e 94 bb 00 	call	0x176	; 0x176 <DIO_enuSetPinVal>
 47c:	08 95       	ret

0000047e <LCD_enuGoToPosition>:
 47e:	cf 93       	push	r28
 480:	60 31       	cpi	r22, 0x10	; 16
 482:	d0 f4       	brcc	.+52     	; 0x4b8 <LCD_enuGoToPosition+0x3a>
 484:	81 30       	cpi	r24, 0x01	; 1
 486:	59 f4       	brne	.+22     	; 0x49e <LCD_enuGoToPosition+0x20>
 488:	c0 e8       	ldi	r28, 0x80	; 128
 48a:	c6 0f       	add	r28, r22
 48c:	40 e0       	ldi	r20, 0x00	; 0
 48e:	60 e0       	ldi	r22, 0x00	; 0
 490:	80 e0       	ldi	r24, 0x00	; 0
 492:	0e 94 bb 00 	call	0x176	; 0x176 <DIO_enuSetPinVal>
 496:	8c 2f       	mov	r24, r28
 498:	0e 94 84 02 	call	0x508	; 0x508 <LCD_enuLatch>
 49c:	10 c0       	rjmp	.+32     	; 0x4be <LCD_enuGoToPosition+0x40>
 49e:	82 30       	cpi	r24, 0x02	; 2
 4a0:	69 f4       	brne	.+26     	; 0x4bc <LCD_enuGoToPosition+0x3e>
 4a2:	c0 ec       	ldi	r28, 0xC0	; 192
 4a4:	c6 0f       	add	r28, r22
 4a6:	40 e0       	ldi	r20, 0x00	; 0
 4a8:	60 e0       	ldi	r22, 0x00	; 0
 4aa:	80 e0       	ldi	r24, 0x00	; 0
 4ac:	0e 94 bb 00 	call	0x176	; 0x176 <DIO_enuSetPinVal>
 4b0:	8c 2f       	mov	r24, r28
 4b2:	0e 94 84 02 	call	0x508	; 0x508 <LCD_enuLatch>
 4b6:	03 c0       	rjmp	.+6      	; 0x4be <LCD_enuGoToPosition+0x40>
 4b8:	81 e0       	ldi	r24, 0x01	; 1
 4ba:	01 c0       	rjmp	.+2      	; 0x4be <LCD_enuGoToPosition+0x40>
 4bc:	81 e0       	ldi	r24, 0x01	; 1
 4be:	cf 91       	pop	r28
 4c0:	08 95       	ret

000004c2 <LCD_vidCheckPosition>:
 4c2:	80 91 80 00 	lds	r24, 0x0080	; 0x800080 <__data_end>
 4c6:	80 31       	cpi	r24, 0x10	; 16
 4c8:	51 f4       	brne	.+20     	; 0x4de <LCD_vidCheckPosition+0x1c>
 4ca:	60 e0       	ldi	r22, 0x00	; 0
 4cc:	82 e0       	ldi	r24, 0x02	; 2
 4ce:	0e 94 3f 02 	call	0x47e	; 0x47e <LCD_enuGoToPosition>
 4d2:	80 91 80 00 	lds	r24, 0x0080	; 0x800080 <__data_end>
 4d6:	8f 5f       	subi	r24, 0xFF	; 255
 4d8:	80 93 80 00 	sts	0x0080, r24	; 0x800080 <__data_end>
 4dc:	08 95       	ret
 4de:	80 32       	cpi	r24, 0x20	; 32
 4e0:	79 f4       	brne	.+30     	; 0x500 <LCD_vidCheckPosition+0x3e>
 4e2:	40 e0       	ldi	r20, 0x00	; 0
 4e4:	60 e0       	ldi	r22, 0x00	; 0
 4e6:	80 e0       	ldi	r24, 0x00	; 0
 4e8:	0e 94 bb 00 	call	0x176	; 0x176 <DIO_enuSetPinVal>
 4ec:	81 e0       	ldi	r24, 0x01	; 1
 4ee:	0e 94 84 02 	call	0x508	; 0x508 <LCD_enuLatch>
 4f2:	60 e0       	ldi	r22, 0x00	; 0
 4f4:	81 e0       	ldi	r24, 0x01	; 1
 4f6:	0e 94 3f 02 	call	0x47e	; 0x47e <LCD_enuGoToPosition>
 4fa:	10 92 80 00 	sts	0x0080, r1	; 0x800080 <__data_end>
 4fe:	08 95       	ret
 500:	8f 5f       	subi	r24, 0xFF	; 255
 502:	80 93 80 00 	sts	0x0080, r24	; 0x800080 <__data_end>
 506:	08 95       	ret

00000508 <LCD_enuLatch>:
 508:	1f 93       	push	r17
 50a:	cf 93       	push	r28
 50c:	df 93       	push	r29
 50e:	1f 92       	push	r1
 510:	cd b7       	in	r28, 0x3d	; 61
 512:	de b7       	in	r29, 0x3e	; 62
 514:	18 2f       	mov	r17, r24
 516:	19 82       	std	Y+1, r1	; 0x01
 518:	40 e0       	ldi	r20, 0x00	; 0
 51a:	61 e0       	ldi	r22, 0x01	; 1
 51c:	80 e0       	ldi	r24, 0x00	; 0
 51e:	0e 94 bb 00 	call	0x176	; 0x176 <DIO_enuSetPinVal>
 522:	40 e0       	ldi	r20, 0x00	; 0
 524:	62 e0       	ldi	r22, 0x02	; 2
 526:	80 e0       	ldi	r24, 0x00	; 0
 528:	0e 94 bb 00 	call	0x176	; 0x176 <DIO_enuSetPinVal>
 52c:	ae 01       	movw	r20, r28
 52e:	4f 5f       	subi	r20, 0xFF	; 255
 530:	5f 4f       	sbci	r21, 0xFF	; 255
 532:	60 e0       	ldi	r22, 0x00	; 0
 534:	80 e0       	ldi	r24, 0x00	; 0
 536:	0e 94 2d 01 	call	0x25a	; 0x25a <DIO_enuGetPinVal>
 53a:	89 81       	ldd	r24, Y+1	; 0x01
 53c:	81 30       	cpi	r24, 0x01	; 1
 53e:	11 f4       	brne	.+4      	; 0x544 <LCD_enuLatch+0x3c>
 540:	0e 94 61 02 	call	0x4c2	; 0x4c2 <LCD_vidCheckPosition>
 544:	41 2f       	mov	r20, r17
 546:	44 1f       	adc	r20, r20
 548:	44 27       	eor	r20, r20
 54a:	44 1f       	adc	r20, r20
 54c:	67 e0       	ldi	r22, 0x07	; 7
 54e:	81 e0       	ldi	r24, 0x01	; 1
 550:	0e 94 bb 00 	call	0x176	; 0x176 <DIO_enuSetPinVal>
 554:	16 fb       	bst	r17, 6
 556:	44 27       	eor	r20, r20
 558:	40 f9       	bld	r20, 0
 55a:	66 e0       	ldi	r22, 0x06	; 6
 55c:	81 e0       	ldi	r24, 0x01	; 1
 55e:	0e 94 bb 00 	call	0x176	; 0x176 <DIO_enuSetPinVal>
 562:	15 fb       	bst	r17, 5
 564:	44 27       	eor	r20, r20
 566:	40 f9       	bld	r20, 0
 568:	65 e0       	ldi	r22, 0x05	; 5
 56a:	81 e0       	ldi	r24, 0x01	; 1
 56c:	0e 94 bb 00 	call	0x176	; 0x176 <DIO_enuSetPinVal>
 570:	14 fb       	bst	r17, 4
 572:	44 27       	eor	r20, r20
 574:	40 f9       	bld	r20, 0
 576:	64 e0       	ldi	r22, 0x04	; 4
 578:	81 e0       	ldi	r24, 0x01	; 1
 57a:	0e 94 bb 00 	call	0x176	; 0x176 <DIO_enuSetPinVal>
 57e:	13 fb       	bst	r17, 3
 580:	44 27       	eor	r20, r20
 582:	40 f9       	bld	r20, 0
 584:	63 e0       	ldi	r22, 0x03	; 3
 586:	81 e0       	ldi	r24, 0x01	; 1
 588:	0e 94 bb 00 	call	0x176	; 0x176 <DIO_enuSetPinVal>
 58c:	12 fb       	bst	r17, 2
 58e:	44 27       	eor	r20, r20
 590:	40 f9       	bld	r20, 0
 592:	62 e0       	ldi	r22, 0x02	; 2
 594:	81 e0       	ldi	r24, 0x01	; 1
 596:	0e 94 bb 00 	call	0x176	; 0x176 <DIO_enuSetPinVal>
 59a:	11 fb       	bst	r17, 1
 59c:	44 27       	eor	r20, r20
 59e:	40 f9       	bld	r20, 0
 5a0:	61 e0       	ldi	r22, 0x01	; 1
 5a2:	81 e0       	ldi	r24, 0x01	; 1
 5a4:	0e 94 bb 00 	call	0x176	; 0x176 <DIO_enuSetPinVal>
 5a8:	41 2f       	mov	r20, r17
 5aa:	41 70       	andi	r20, 0x01	; 1
 5ac:	60 e0       	ldi	r22, 0x00	; 0
 5ae:	81 e0       	ldi	r24, 0x01	; 1
 5b0:	0e 94 bb 00 	call	0x176	; 0x176 <DIO_enuSetPinVal>
 5b4:	18 2f       	mov	r17, r24
 5b6:	0e 94 2e 02 	call	0x45c	; 0x45c <LCD_vidTrigger_LATCH>
 5ba:	81 2f       	mov	r24, r17
 5bc:	0f 90       	pop	r0
 5be:	df 91       	pop	r29
 5c0:	cf 91       	pop	r28
 5c2:	1f 91       	pop	r17
 5c4:	08 95       	ret

000005c6 <LCD_enuInit>:
 5c6:	41 e0       	ldi	r20, 0x01	; 1
 5c8:	60 e0       	ldi	r22, 0x00	; 0
 5ca:	80 e0       	ldi	r24, 0x00	; 0
 5cc:	0e 94 49 00 	call	0x92	; 0x92 <DIO_enuSetPinDirection>
 5d0:	41 e0       	ldi	r20, 0x01	; 1
 5d2:	61 e0       	ldi	r22, 0x01	; 1
 5d4:	80 e0       	ldi	r24, 0x00	; 0
 5d6:	0e 94 49 00 	call	0x92	; 0x92 <DIO_enuSetPinDirection>
 5da:	41 e0       	ldi	r20, 0x01	; 1
 5dc:	62 e0       	ldi	r22, 0x02	; 2
 5de:	80 e0       	ldi	r24, 0x00	; 0
 5e0:	0e 94 49 00 	call	0x92	; 0x92 <DIO_enuSetPinDirection>
 5e4:	41 e0       	ldi	r20, 0x01	; 1
 5e6:	67 e0       	ldi	r22, 0x07	; 7
 5e8:	81 e0       	ldi	r24, 0x01	; 1
 5ea:	0e 94 49 00 	call	0x92	; 0x92 <DIO_enuSetPinDirection>
 5ee:	41 e0       	ldi	r20, 0x01	; 1
 5f0:	66 e0       	ldi	r22, 0x06	; 6
 5f2:	81 e0       	ldi	r24, 0x01	; 1
 5f4:	0e 94 49 00 	call	0x92	; 0x92 <DIO_enuSetPinDirection>
 5f8:	41 e0       	ldi	r20, 0x01	; 1
 5fa:	65 e0       	ldi	r22, 0x05	; 5
 5fc:	81 e0       	ldi	r24, 0x01	; 1
 5fe:	0e 94 49 00 	call	0x92	; 0x92 <DIO_enuSetPinDirection>
 602:	41 e0       	ldi	r20, 0x01	; 1
 604:	64 e0       	ldi	r22, 0x04	; 4
 606:	81 e0       	ldi	r24, 0x01	; 1
 608:	0e 94 49 00 	call	0x92	; 0x92 <DIO_enuSetPinDirection>
 60c:	8d e2       	ldi	r24, 0x2D	; 45
 60e:	92 e2       	ldi	r25, 0x22	; 34
 610:	01 97       	sbiw	r24, 0x01	; 1
 612:	f1 f7       	brne	.-4      	; 0x610 <LCD_enuInit+0x4a>
 614:	00 c0       	rjmp	.+0      	; 0x616 <LCD_enuInit+0x50>
 616:	00 00       	nop
 618:	41 e0       	ldi	r20, 0x01	; 1
 61a:	63 e0       	ldi	r22, 0x03	; 3
 61c:	81 e0       	ldi	r24, 0x01	; 1
 61e:	0e 94 49 00 	call	0x92	; 0x92 <DIO_enuSetPinDirection>
 622:	41 e0       	ldi	r20, 0x01	; 1
 624:	62 e0       	ldi	r22, 0x02	; 2
 626:	81 e0       	ldi	r24, 0x01	; 1
 628:	0e 94 49 00 	call	0x92	; 0x92 <DIO_enuSetPinDirection>
 62c:	41 e0       	ldi	r20, 0x01	; 1
 62e:	61 e0       	ldi	r22, 0x01	; 1
 630:	81 e0       	ldi	r24, 0x01	; 1
 632:	0e 94 49 00 	call	0x92	; 0x92 <DIO_enuSetPinDirection>
 636:	41 e0       	ldi	r20, 0x01	; 1
 638:	60 e0       	ldi	r22, 0x00	; 0
 63a:	81 e0       	ldi	r24, 0x01	; 1
 63c:	0e 94 49 00 	call	0x92	; 0x92 <DIO_enuSetPinDirection>
 640:	40 e0       	ldi	r20, 0x00	; 0
 642:	60 e0       	ldi	r22, 0x00	; 0
 644:	80 e0       	ldi	r24, 0x00	; 0
 646:	0e 94 bb 00 	call	0x176	; 0x176 <DIO_enuSetPinVal>
 64a:	88 e3       	ldi	r24, 0x38	; 56
 64c:	0e 94 84 02 	call	0x508	; 0x508 <LCD_enuLatch>
 650:	e9 ef       	ldi	r30, 0xF9	; 249
 652:	f0 e0       	ldi	r31, 0x00	; 0
 654:	31 97       	sbiw	r30, 0x01	; 1
 656:	f1 f7       	brne	.-4      	; 0x654 <LCD_enuInit+0x8e>
 658:	00 c0       	rjmp	.+0      	; 0x65a <LCD_enuInit+0x94>
 65a:	00 00       	nop
 65c:	40 e0       	ldi	r20, 0x00	; 0
 65e:	60 e0       	ldi	r22, 0x00	; 0
 660:	80 e0       	ldi	r24, 0x00	; 0
 662:	0e 94 bb 00 	call	0x176	; 0x176 <DIO_enuSetPinVal>
 666:	8f e0       	ldi	r24, 0x0F	; 15
 668:	0e 94 84 02 	call	0x508	; 0x508 <LCD_enuLatch>
 66c:	89 ef       	ldi	r24, 0xF9	; 249
 66e:	90 e0       	ldi	r25, 0x00	; 0
 670:	01 97       	sbiw	r24, 0x01	; 1
 672:	f1 f7       	brne	.-4      	; 0x670 <LCD_enuInit+0xaa>
 674:	00 c0       	rjmp	.+0      	; 0x676 <LCD_enuInit+0xb0>
 676:	00 00       	nop
 678:	40 e0       	ldi	r20, 0x00	; 0
 67a:	60 e0       	ldi	r22, 0x00	; 0
 67c:	80 e0       	ldi	r24, 0x00	; 0
 67e:	0e 94 bb 00 	call	0x176	; 0x176 <DIO_enuSetPinVal>
 682:	81 e0       	ldi	r24, 0x01	; 1
 684:	0e 94 84 02 	call	0x508	; 0x508 <LCD_enuLatch>
 688:	e3 ef       	ldi	r30, 0xF3	; 243
 68a:	f1 e0       	ldi	r31, 0x01	; 1
 68c:	31 97       	sbiw	r30, 0x01	; 1
 68e:	f1 f7       	brne	.-4      	; 0x68c <LCD_enuInit+0xc6>
 690:	00 c0       	rjmp	.+0      	; 0x692 <LCD_enuInit+0xcc>
 692:	00 00       	nop
 694:	40 e0       	ldi	r20, 0x00	; 0
 696:	60 e0       	ldi	r22, 0x00	; 0
 698:	80 e0       	ldi	r24, 0x00	; 0
 69a:	0e 94 bb 00 	call	0x176	; 0x176 <DIO_enuSetPinVal>
 69e:	86 e0       	ldi	r24, 0x06	; 6
 6a0:	0e 94 84 02 	call	0x508	; 0x508 <LCD_enuLatch>
 6a4:	e9 ef       	ldi	r30, 0xF9	; 249
 6a6:	f0 e0       	ldi	r31, 0x00	; 0
 6a8:	31 97       	sbiw	r30, 0x01	; 1
 6aa:	f1 f7       	brne	.-4      	; 0x6a8 <LCD_enuInit+0xe2>
 6ac:	00 c0       	rjmp	.+0      	; 0x6ae <LCD_enuInit+0xe8>
 6ae:	00 00       	nop
 6b0:	08 95       	ret

000006b2 <LCD_enuDisplayChar>:
 6b2:	cf 93       	push	r28
 6b4:	c8 2f       	mov	r28, r24
 6b6:	41 e0       	ldi	r20, 0x01	; 1
 6b8:	60 e0       	ldi	r22, 0x00	; 0
 6ba:	80 e0       	ldi	r24, 0x00	; 0
 6bc:	0e 94 bb 00 	call	0x176	; 0x176 <DIO_enuSetPinVal>
 6c0:	8c 2f       	mov	r24, r28
 6c2:	0e 94 84 02 	call	0x508	; 0x508 <LCD_enuLatch>
 6c6:	cf 91       	pop	r28
 6c8:	08 95       	ret

000006ca <LCD_vidClearScreen>:
static inline ES_t LCD_inlenuSendCommand(u8 Copy_u8Command)
{
	ES_t Local_enuErrorState = ES_NOK;
		
	/* RS --> LOW to write Command */
	Local_enuErrorState = DIO_enuSetPinVal(RS_PORT, RS_PIN, DIO_u8LOW);
 6ca:	40 e0       	ldi	r20, 0x00	; 0
 6cc:	60 e0       	ldi	r22, 0x00	; 0
 6ce:	80 e0       	ldi	r24, 0x00	; 0
 6d0:	0e 94 bb 00 	call	0x176	; 0x176 <DIO_enuSetPinVal>

	/* Call Latch Function */
	Local_enuErrorState = LCD_enuLatch(Copy_u8Command);
 6d4:	81 e0       	ldi	r24, 0x01	; 1
 6d6:	0e 94 84 02 	call	0x508	; 0x508 <LCD_enuLatch>
}

void LCD_vidClearScreen(void)
{
	LCD_inlenuSendCommand(LCD_Clear_Display);
	LCD_u8PosCounter = 0;
 6da:	10 92 80 00 	sts	0x0080, r1	; 0x800080 <__data_end>
 6de:	08 95       	ret

000006e0 <main>:
#include "KEYPAD_config.h"


int main(void)
{
	LCD_enuInit();
 6e0:	0e 94 e3 02 	call	0x5c6	; 0x5c6 <LCD_enuInit>
	KEYPAD_enuInit();
 6e4:	0e 94 74 01 	call	0x2e8	; 0x2e8 <KEYPAD_enuInit>
	u8 Local_u8KeyPressed;
	
    /* Replace with your application code */
    while (1) 
    {
		Local_u8KeyPressed = KEYPAD_u8GetPressedKey();
 6e8:	0e 94 c5 01 	call	0x38a	; 0x38a <KEYPAD_u8GetPressedKey>
		switch(Local_u8KeyPressed)
 6ec:	83 36       	cpi	r24, 0x63	; 99
 6ee:	19 f0       	breq	.+6      	; 0x6f6 <main+0x16>
 6f0:	8f 3f       	cpi	r24, 0xFF	; 255
 6f2:	d1 f3       	breq	.-12     	; 0x6e8 <main+0x8>
 6f4:	03 c0       	rjmp	.+6      	; 0x6fc <main+0x1c>
		{
			case 'c':
			LCD_vidClearScreen();
 6f6:	0e 94 65 03 	call	0x6ca	; 0x6ca <LCD_vidClearScreen>
			break;
 6fa:	f6 cf       	rjmp	.-20     	; 0x6e8 <main+0x8>
			
			case KEYPAD_No_Key_Pressed:
			break;
			
			default:
			LCD_enuDisplayChar(Local_u8KeyPressed);
 6fc:	0e 94 59 03 	call	0x6b2	; 0x6b2 <LCD_enuDisplayChar>
 700:	f3 cf       	rjmp	.-26     	; 0x6e8 <main+0x8>

00000702 <_exit>:
 702:	f8 94       	cli

00000704 <__stop_program>:
 704:	ff cf       	rjmp	.-2      	; 0x704 <__stop_program>
